; Function Attrs: nounwind uwtable
define dso_local void @RemoveStatisticsDataById(i32 noundef %0, i1 noundef zeroext %1) local_unnamed_addr #0 {
  %3 = tail call ptr @table_open(i32 noundef 3429, i32 noundef 3) #10
  %4 = zext i32 %0 to i64
  %5 = zext i1 %1 to i64
  %6 = tail call ptr @SearchSysCache2(i32 noundef 62, i64 noundef %4, i64 noundef %5) #10
  %.not = icmp eq ptr %6, null
  br i1 %.not, label %9, label %7

7:                                                ; preds = %2
  %8 = getelementptr inbounds nuw i8, ptr %6, i64 4
  tail call void @CatalogTupleDelete(ptr noundef %3, ptr noundef nonnull %8) #10
  tail call void @ReleaseSysCache(ptr noundef nonnull %6) #10
  br label %9

9:                                                ; preds = %7, %2
  tail call void @table_close(ptr noundef %3, i32 noundef 3) #10
  ret void
}